target datalayout = "e-m:e-p270:32:32-p271:32:32-p272:64:64-i64:64-i128:128-f80:128-n8:16:32:64-S128"
target triple = "x86_64-pc-linux-gnu"

%struct.yyguts_t = type { ptr, ptr, ptr, i64, i64, ptr, i8, i32, i32, ptr, i32, i32, i32, i32, i32, ptr, i32, ptr, i32, i32, ptr, i32, i32 }
%struct.Radius_scanner_state_t = type { [10 x ptr], i32, ptr, ptr, ptr, ptr, ptr, ptr, ptr, i32, i32, i32, i32, ptr, i32, i32, ptr, i32, ptr, ptr, [10 x ptr], [10 x i32], ptr }
%struct._radius_dictionary_t = type { ptr, ptr, ptr, ptr, ptr }
%struct._GString = type { ptr, i64, i64 }

@.str.8 = private unnamed_addr constant [6 x i8] c"%s/%s\00", align 1
@.str.9 = private unnamed_addr constant [2 x i8] c"r\00", align 1
@.str.10 = private unnamed_addr constant [38 x i8] c"Could not open file: '%s', error: %s\0A\00", align 1
@.str.19 = private unnamed_addr constant [1 x i8] zeroinitializer, align 1
@.str.20 = private unnamed_addr constant [29 x i8] c"Can't initialize scanner: %s\00", align 1

; Function Attrs: nounwind uwtable
define internal i32 @yy_init_globals(ptr noundef %0) #0 {
  %2 = alloca ptr, align 8
  %3 = alloca ptr, align 8
  store ptr %0, ptr %2, align 8
  %4 = load ptr, ptr %2, align 8
  store ptr %4, ptr %3, align 8
  %5 = load ptr, ptr %3, align 8
  %6 = getelementptr inbounds %struct.yyguts_t, ptr %5, i32 0, i32 5
  store ptr null, ptr %6, align 8
  %7 = load ptr, ptr %3, align 8
  %8 = getelementptr inbounds %struct.yyguts_t, ptr %7, i32 0, i32 3
  store i64 0, ptr %8, align 8
  %9 = load ptr, ptr %3, align 8
  %10 = getelementptr inbounds %struct.yyguts_t, ptr %9, i32 0, i32 4
  store i64 0, ptr %10, align 8
  %11 = load ptr, ptr %3, align 8
  %12 = getelementptr inbounds %struct.yyguts_t, ptr %11, i32 0, i32 9
  store ptr null, ptr %12, align 8
  %13 = load ptr, ptr %3, align 8
  %14 = getelementptr inbounds %struct.yyguts_t, ptr %13, i32 0, i32 10
  store i32 0, ptr %14, align 8
  %15 = load ptr, ptr %3, align 8
  %16 = getelementptr inbounds %struct.yyguts_t, ptr %15, i32 0, i32 11
  store i32 0, ptr %16, align 4
  %17 = load ptr, ptr %3, align 8
  %18 = getelementptr inbounds %struct.yyguts_t, ptr %17, i32 0, i32 13
  store i32 0, ptr %18, align 4
  %19 = load ptr, ptr %3, align 8
  %20 = getelementptr inbounds %struct.yyguts_t, ptr %19, i32 0, i32 14
  store i32 0, ptr %20, align 8
  %21 = load ptr, ptr %3, align 8
  %22 = getelementptr inbounds %struct.yyguts_t, ptr %21, i32 0, i32 15
  store ptr null, ptr %22, align 8
  %23 = load ptr, ptr %3, align 8
  %24 = getelementptr inbounds %struct.yyguts_t, ptr %23, i32 0, i32 1
  store ptr null, ptr %24, align 8
  %25 = load ptr, ptr %3, align 8
  %26 = getelementptr inbounds %struct.yyguts_t, ptr %25, i32 0, i32 2
  store ptr null, ptr %26, align 8
  ret i32 0
}

; Function Attrs: nounwind uwtable
define hidden void @Radius_set_extra(ptr noundef %0, ptr noundef %1) #0 {
  %3 = alloca ptr, align 8
  %4 = alloca ptr, align 8
  %5 = alloca ptr, align 8
  store ptr %0, ptr %3, align 8
  store ptr %1, ptr %4, align 8
  %6 = load ptr, ptr %4, align 8
  store ptr %6, ptr %5, align 8
  %7 = load ptr, ptr %3, align 8
  %8 = load ptr, ptr %5, align 8
  %9 = getelementptr inbounds %struct.yyguts_t, ptr %8, i32 0, i32 0
  store ptr %7, ptr %9, align 8
  ret void
}

; Function Attrs: nounwind uwtable
define hidden void @Radius_set_in(ptr noundef %0, ptr noundef %1) #0 {
  %3 = alloca ptr, align 8
  %4 = alloca ptr, align 8
  %5 = alloca ptr, align 8
  store ptr %0, ptr %3, align 8
  store ptr %1, ptr %4, align 8
  %6 = load ptr, ptr %4, align 8
  store ptr %6, ptr %5, align 8
  %7 = load ptr, ptr %3, align 8
  %8 = load ptr, ptr %5, align 8
  %9 = getelementptr inbounds %struct.yyguts_t, ptr %8, i32 0, i32 1
  store ptr %7, ptr %9, align 8
  ret void
}

; Function Attrs: nounwind uwtable
define hidden i32 @Radius_lex_init(ptr noundef %0) #0 {
  %2 = alloca i32, align 4
  %3 = alloca ptr, align 8
  store ptr %0, ptr %3, align 8
  %4 = load ptr, ptr %3, align 8
  %5 = icmp eq ptr %4, null
  br i1 %5, label %6, label %8

6:                                                ; preds = %1
  %7 = call ptr @__errno_location() #14
  store i32 22, ptr %7, align 4
  store i32 1, ptr %2, align 4
  br label %22

8:                                                ; preds = %1
  %9 = call noalias ptr @malloc(i64 noundef 144) #16
  %10 = load ptr, ptr %3, align 8
  store ptr %9, ptr %10, align 8
  %11 = load ptr, ptr %3, align 8
  %12 = load ptr, ptr %11, align 8
  %13 = icmp eq ptr %12, null
  br i1 %13, label %14, label %16

14:                                               ; preds = %8
  %15 = call ptr @__errno_location() #14
  store i32 12, ptr %15, align 4
  store i32 1, ptr %2, align 4
  br label %22

16:                                               ; preds = %8
  %17 = load ptr, ptr %3, align 8
  %18 = load ptr, ptr %17, align 8
  call void @llvm.memset.p0.i64(ptr align 1 %18, i8 0, i64 144, i1 false)
  %19 = load ptr, ptr %3, align 8
  %20 = load ptr, ptr %19, align 8
  %21 = call i32 @yy_init_globals(ptr noundef %20)
  store i32 %21, ptr %2, align 4
  br label %22

22:                                               ; preds = %16, %14, %6
  %23 = load i32, ptr %2, align 4
  ret i32 %23
}

; Function Attrs: nounwind uwtable
define hidden i32 @radius_load_dictionary(ptr noundef %0, ptr noundef %1, ptr noundef %2, ptr noundef %3) #0 {
  %5 = alloca i32, align 4
  %6 = alloca ptr, align 8
  %7 = alloca ptr, align 8
  %8 = alloca ptr, align 8
  %9 = alloca ptr, align 8
  %10 = alloca ptr, align 8
  %11 = alloca ptr, align 8
  %12 = alloca %struct.Radius_scanner_state_t, align 8
  %13 = alloca i32, align 4
  store ptr %0, ptr %6, align 8
  store ptr %1, ptr %7, align 8
  store ptr %2, ptr %8, align 8
  store ptr %3, ptr %9, align 8
  %14 = getelementptr inbounds %struct.Radius_scanner_state_t, ptr %12, i32 0, i32 1
  store i32 0, ptr %14, align 8
  %15 = load ptr, ptr %6, align 8
  %16 = getelementptr inbounds %struct.Radius_scanner_state_t, ptr %12, i32 0, i32 2
  store ptr %15, ptr %16, align 8
  %17 = getelementptr inbounds %struct.Radius_scanner_state_t, ptr %12, i32 0, i32 3
  store ptr null, ptr %17, align 8
  %18 = getelementptr inbounds %struct.Radius_scanner_state_t, ptr %12, i32 0, i32 4
  store ptr null, ptr %18, align 8
  %19 = getelementptr inbounds %struct.Radius_scanner_state_t, ptr %12, i32 0, i32 5
  store ptr null, ptr %19, align 8
  %20 = getelementptr inbounds %struct.Radius_scanner_state_t, ptr %12, i32 0, i32 6
  store ptr null, ptr %20, align 8
  %21 = getelementptr inbounds %struct.Radius_scanner_state_t, ptr %12, i32 0, i32 7
  store ptr null, ptr %21, align 8
  %22 = getelementptr inbounds %struct.Radius_scanner_state_t, ptr %12, i32 0, i32 8
  store ptr null, ptr %22, align 8
  %23 = getelementptr inbounds %struct.Radius_scanner_state_t, ptr %12, i32 0, i32 9
  store i32 0, ptr %23, align 8
  %24 = getelementptr inbounds %struct.Radius_scanner_state_t, ptr %12, i32 0, i32 10
  store i32 1, ptr %24, align 4
  %25 = getelementptr inbounds %struct.Radius_scanner_state_t, ptr %12, i32 0, i32 11
  store i32 1, ptr %25, align 8
  %26 = getelementptr inbounds %struct.Radius_scanner_state_t, ptr %12, i32 0, i32 12
  store i32 0, ptr %26, align 4
  %27 = getelementptr inbounds %struct.Radius_scanner_state_t, ptr %12, i32 0, i32 13
  store ptr null, ptr %27, align 8
  %28 = getelementptr inbounds %struct.Radius_scanner_state_t, ptr %12, i32 0, i32 14
  store i32 0, ptr %28, align 8
  %29 = getelementptr inbounds %struct.Radius_scanner_state_t, ptr %12, i32 0, i32 15
  store i32 0, ptr %29, align 4
  %30 = getelementptr inbounds %struct.Radius_scanner_state_t, ptr %12, i32 0, i32 16
  store ptr null, ptr %30, align 8
  %31 = getelementptr inbounds %struct.Radius_scanner_state_t, ptr %12, i32 0, i32 17
  store i32 0, ptr %31, align 8
  %32 = getelementptr inbounds %struct.Radius_scanner_state_t, ptr %12, i32 0, i32 18
  store ptr null, ptr %32, align 8
  %33 = load ptr, ptr %7, align 8
  %34 = getelementptr inbounds %struct.Radius_scanner_state_t, ptr %12, i32 0, i32 19
  store ptr %33, ptr %34, align 8
  %35 = getelementptr inbounds %struct.Radius_scanner_state_t, ptr %12, i32 0, i32 19
  %36 = load ptr, ptr %35, align 8
  %37 = load ptr, ptr %8, align 8
  %38 = call noalias ptr (ptr, ptr, ...) @wmem_strdup_printf(ptr noundef null, ptr noundef @.str.8, ptr noundef %36, ptr noundef %37)
  %39 = getelementptr inbounds %struct.Radius_scanner_state_t, ptr %12, i32 0, i32 20
  %40 = getelementptr [10 x ptr], ptr %39, i64 0, i64 0
  store ptr %38, ptr %40, align 8
  %41 = getelementptr inbounds %struct.Radius_scanner_state_t, ptr %12, i32 0, i32 21
  %42 = getelementptr [10 x i32], ptr %41, i64 0, i64 0
  store i32 1, ptr %42, align 8
  store i32 1, ptr %13, align 4
  br label %43

43:                                               ; preds = %55, %4
  %44 = load i32, ptr %13, align 4
  %45 = icmp slt i32 %44, 10
  br i1 %45, label %46, label %58

46:                                               ; preds = %43
  %47 = getelementptr inbounds %struct.Radius_scanner_state_t, ptr %12, i32 0, i32 20
  %48 = load i32, ptr %13, align 4
  %49 = sext i32 %48 to i64
  %50 = getelementptr [10 x ptr], ptr %47, i64 0, i64 %49
  store ptr null, ptr %50, align 8
  %51 = getelementptr inbounds %struct.Radius_scanner_state_t, ptr %12, i32 0, i32 21
  %52 = load i32, ptr %13, align 4
  %53 = sext i32 %52 to i64
  %54 = getelementptr [10 x i32], ptr %51, i64 0, i64 %53
  store i32 1, ptr %54, align 4
  br label %55

55:                                               ; preds = %46
  %56 = load i32, ptr %13, align 4
  %57 = add i32 %56, 1
  store i32 %57, ptr %13, align 4
  br label %43, !llvm.loop !16

58:                                               ; preds = %43
  %59 = call ptr @g_string_new(ptr noundef @.str.19)
  %60 = getelementptr inbounds %struct.Radius_scanner_state_t, ptr %12, i32 0, i32 22
  store ptr %59, ptr %60, align 8
  %61 = getelementptr inbounds %struct.Radius_scanner_state_t, ptr %12, i32 0, i32 20
  %62 = getelementptr [10 x ptr], ptr %61, i64 0, i64 0
  %63 = load ptr, ptr %62, align 8
  %64 = call noalias ptr @fopen(ptr noundef %63, ptr noundef @.str.9)
  store ptr %64, ptr %10, align 8
  %65 = load ptr, ptr %10, align 8
  %66 = icmp ne ptr %65, null
  br i1 %66, label %83, label %67

67:                                               ; preds = %58
  %68 = getelementptr inbounds %struct.Radius_scanner_state_t, ptr %12, i32 0, i32 22
  %69 = load ptr, ptr %68, align 8
  %70 = getelementptr inbounds %struct.Radius_scanner_state_t, ptr %12, i32 0, i32 20
  %71 = getelementptr [10 x ptr], ptr %70, i64 0, i64 0
  %72 = load ptr, ptr %71, align 8
  %73 = call ptr @__errno_location() #14
  %74 = load i32, ptr %73, align 4
  %75 = call ptr @g_strerror(i32 noundef %74) #14
  call void (ptr, ptr, ...) @g_string_append_printf(ptr noundef %69, ptr noundef @.str.10, ptr noundef %72, ptr noundef %75)
  %76 = getelementptr inbounds %struct.Radius_scanner_state_t, ptr %12, i32 0, i32 20
  %77 = getelementptr [10 x ptr], ptr %76, i64 0, i64 0
  %78 = load ptr, ptr %77, align 8
  call void @g_free(ptr noundef %78)
  %79 = getelementptr inbounds %struct.Radius_scanner_state_t, ptr %12, i32 0, i32 22
  %80 = load ptr, ptr %79, align 8
  %81 = call ptr @g_string_free(ptr noundef %80, i32 noundef 0)
  %82 = load ptr, ptr %9, align 8
  store ptr %81, ptr %82, align 8
  store i32 0, ptr %5, align 4
  br label %149

83:                                               ; preds = %58
  %84 = call ptr @g_hash_table_new_full(ptr noundef @g_str_hash, ptr noundef @g_str_equal, ptr noundef @g_free, ptr noundef @destroy_value_strings)
  %85 = getelementptr inbounds %struct.Radius_scanner_state_t, ptr %12, i32 0, i32 3
  store ptr %84, ptr %85, align 8
  %86 = call i32 @Radius_lex_init(ptr noundef %11)
  %87 = icmp ne i32 %86, 0
  br i1 %87, label %88, label %103

88:                                               ; preds = %83
  %89 = getelementptr inbounds %struct.Radius_scanner_state_t, ptr %12, i32 0, i32 22
  %90 = load ptr, ptr %89, align 8
  %91 = call ptr @__errno_location() #14
  %92 = load i32, ptr %91, align 4
  %93 = call ptr @strerror(i32 noundef %92) #13
  call void (ptr, ptr, ...) @g_string_append_printf(ptr noundef %90, ptr noundef @.str.20, ptr noundef %93)
  %94 = load ptr, ptr %10, align 8
  %95 = call i32 @fclose(ptr noundef %94)
  %96 = getelementptr inbounds %struct.Radius_scanner_state_t, ptr %12, i32 0, i32 20
  %97 = getelementptr [10 x ptr], ptr %96, i64 0, i64 0
  %98 = load ptr, ptr %97, align 8
  call void @g_free(ptr noundef %98)
  %99 = getelementptr inbounds %struct.Radius_scanner_state_t, ptr %12, i32 0, i32 22
  %100 = load ptr, ptr %99, align 8
  %101 = call ptr @g_string_free(ptr noundef %100, i32 noundef 0)
  %102 = load ptr, ptr %9, align 8
  store ptr %101, ptr %102, align 8
  store i32 0, ptr %5, align 4
  br label %149

103:                                              ; preds = %83
  %104 = load ptr, ptr %10, align 8
  %105 = load ptr, ptr %11, align 8
  call void @Radius_set_in(ptr noundef %104, ptr noundef %105)
  %106 = load ptr, ptr %11, align 8
  call void @Radius_set_extra(ptr noundef %12, ptr noundef %106)
  %107 = load ptr, ptr %11, align 8
  %108 = call i32 @Radius_lex(ptr noundef %107)
  %109 = load ptr, ptr %11, align 8
  %110 = call i32 @Radius_lex_destroy(ptr noundef %109)
  store i32 0, ptr %13, align 4
  br label %111

111:                                              ; preds = %120, %103
  %112 = load i32, ptr %13, align 4
  %113 = icmp slt i32 %112, 10
  br i1 %113, label %114, label %123

114:                                              ; preds = %111
  %115 = getelementptr inbounds %struct.Radius_scanner_state_t, ptr %12, i32 0, i32 20
  %116 = load i32, ptr %13, align 4
  %117 = sext i32 %116 to i64
  %118 = getelementptr [10 x ptr], ptr %115, i64 0, i64 %117
  %119 = load ptr, ptr %118, align 8
  call void @g_free(ptr noundef %119)
  br label %120

120:                                              ; preds = %114
  %121 = load i32, ptr %13, align 4
  %122 = add i32 %121, 1
  store i32 %122, ptr %13, align 4
  br label %111, !llvm.loop !17

123:                                              ; preds = %111
  %124 = getelementptr inbounds %struct.Radius_scanner_state_t, ptr %12, i32 0, i32 2
  %125 = load ptr, ptr %124, align 8
  %126 = getelementptr inbounds %struct._radius_dictionary_t, ptr %125, i32 0, i32 0
  %127 = load ptr, ptr %126, align 8
  call void @g_hash_table_foreach(ptr noundef %127, ptr noundef @setup_attrs, ptr noundef %12)
  %128 = getelementptr inbounds %struct.Radius_scanner_state_t, ptr %12, i32 0, i32 2
  %129 = load ptr, ptr %128, align 8
  %130 = getelementptr inbounds %struct._radius_dictionary_t, ptr %129, i32 0, i32 2
  %131 = load ptr, ptr %130, align 8
  call void @g_hash_table_foreach(ptr noundef %131, ptr noundef @setup_vendors, ptr noundef %12)
  %132 = getelementptr inbounds %struct.Radius_scanner_state_t, ptr %12, i32 0, i32 3
  %133 = load ptr, ptr %132, align 8
  call void @g_hash_table_destroy(ptr noundef %133)
  %134 = getelementptr inbounds %struct.Radius_scanner_state_t, ptr %12, i32 0, i32 22
  %135 = load ptr, ptr %134, align 8
  %136 = getelementptr inbounds %struct._GString, ptr %135, i32 0, i32 1
  %137 = load i64, ptr %136, align 8
  %138 = icmp ugt i64 %137, 0
  br i1 %138, label %139, label %144

139:                                              ; preds = %123
  %140 = getelementptr inbounds %struct.Radius_scanner_state_t, ptr %12, i32 0, i32 22
  %141 = load ptr, ptr %140, align 8
  %142 = call ptr @g_string_free(ptr noundef %141, i32 noundef 0)
  %143 = load ptr, ptr %9, align 8
  store ptr %142, ptr %143, align 8
  store i32 0, ptr %5, align 4
  br label %149

144:                                              ; preds = %123
  %145 = load ptr, ptr %9, align 8
  store ptr null, ptr %145, align 8
  %146 = getelementptr inbounds %struct.Radius_scanner_state_t, ptr %12, i32 0, i32 22
  %147 = load ptr, ptr %146, align 8
  %148 = call ptr @g_string_free(ptr noundef %147, i32 noundef 1)
  store i32 1, ptr %5, align 4
  br label %149

149:                                              ; preds = %144, %139, %88, %67
  %150 = load i32, ptr %5, align 4
  ret i32 %150
}