; Function Attrs: nounwind uwtable
define hidden range(i32 0, 2) i32 @radius_load_dictionary(ptr noundef %0, ptr noundef %1, ptr noundef %2, ptr noundef writeonly captures(none) %3) local_unnamed_addr #0 {
  %5 = alloca %struct.Radius_scanner_state_t, align 8
  %6 = getelementptr inbounds nuw i8, ptr %5, i64 80
  store i32 0, ptr %6, align 8
  %7 = getelementptr inbounds nuw i8, ptr %5, i64 88
  store ptr %0, ptr %7, align 8
  %8 = getelementptr inbounds nuw i8, ptr %5, i64 96
  %9 = getelementptr inbounds nuw i8, ptr %5, i64 148
  %10 = getelementptr inbounds nuw i8, ptr %5, i64 104
  call void @llvm.memset.p0.i64(ptr noundef nonnull align 8 dereferenceable(44) %10, i8 0, i64 44, i1 false)
  store i32 1, ptr %9, align 4
  %11 = getelementptr inbounds nuw i8, ptr %5, i64 152
  store i32 1, ptr %11, align 8
  %12 = getelementptr inbounds nuw i8, ptr %5, i64 156
  %13 = getelementptr inbounds nuw i8, ptr %5, i64 192
  store ptr null, ptr %13, align 8
  %14 = getelementptr inbounds nuw i8, ptr %5, i64 200
  call void @llvm.memset.p0.i64(ptr noundef nonnull align 4 dereferenceable(32) %12, i8 0, i64 32, i1 false)
  store ptr %1, ptr %14, align 8
  %15 = tail call noalias ptr (ptr, ptr, ...) @wmem_strdup_printf(ptr noundef null, ptr noundef nonnull @.str.8, ptr noundef %1, ptr noundef %2) #29
  %16 = getelementptr inbounds nuw i8, ptr %5, i64 208
  store ptr %15, ptr %16, align 8
  %17 = getelementptr inbounds nuw i8, ptr %5, i64 288
  store i32 1, ptr %17, align 8
  %scevgep = getelementptr inbounds nuw i8, ptr %5, i64 216
  call void @llvm.memset.p0.i64(ptr noundef nonnull align 8 dereferenceable(72) %scevgep, i8 0, i64 72, i1 false)
  br label %18

18:                                               ; preds = %4, %18
  %indvars.iv = phi i64 [ 1, %4 ], [ %indvars.iv.next, %18 ]
  %19 = getelementptr [10 x i32], ptr %17, i64 0, i64 %indvars.iv
  store i32 1, ptr %19, align 4
  %indvars.iv.next = add nuw nsw i64 %indvars.iv, 1
  %exitcond.not = icmp eq i64 %indvars.iv.next, 10
  br i1 %exitcond.not, label %20, label %18, !llvm.loop !15

20:                                               ; preds = %18
  %21 = tail call ptr @g_string_new(ptr noundef nonnull @.str.19) #29
  %22 = getelementptr inbounds nuw i8, ptr %5, i64 328
  store ptr %21, ptr %22, align 8
  %23 = load ptr, ptr %16, align 8
  %24 = tail call noalias ptr @fopen(ptr noundef %23, ptr noundef nonnull @.str.9)
  %.not = icmp eq ptr %24, null
  br i1 %.not, label %25, label %30

25:                                               ; preds = %20
  %26 = tail call ptr @__errno_location() #32
  %27 = load i32, ptr %26, align 4
  %28 = tail call ptr @g_strerror(i32 noundef %27) #32
  tail call void (ptr, ptr, ...) @g_string_append_printf(ptr noundef %21, ptr noundef nonnull @.str.10, ptr noundef %23, ptr noundef %28) #29
  tail call void @g_free(ptr noundef %23) #29
  %29 = tail call ptr @g_string_free(ptr noundef %21, i32 noundef 0) #29
  store ptr %29, ptr %3, align 8
  br label %59

30:                                               ; preds = %20
  %31 = tail call ptr @g_hash_table_new_full(ptr noundef nonnull @g_str_hash, ptr noundef nonnull @g_str_equal, ptr noundef nonnull @g_free, ptr noundef nonnull @destroy_value_strings) #29
  store ptr %31, ptr %8, align 8
  %calloc.i = tail call dereferenceable_or_null(144) ptr @calloc(i64 1, i64 144)
  %32 = icmp eq ptr %calloc.i, null
  br i1 %32, label %33, label %38

33:                                               ; preds = %30
  %34 = tail call ptr @__errno_location() #32
  store i32 12, ptr %34, align 4
  %35 = tail call ptr @strerror(i32 noundef 12) #29
  tail call void (ptr, ptr, ...) @g_string_append_printf(ptr noundef %21, ptr noundef nonnull @.str.20, ptr noundef %35) #29
  %36 = tail call i32 @fclose(ptr noundef nonnull %24)
  tail call void @g_free(ptr noundef %23) #29
  %37 = tail call ptr @g_string_free(ptr noundef %21, i32 noundef 0) #29
  store ptr %37, ptr %3, align 8
  br label %59

38:                                               ; preds = %30
  %39 = getelementptr inbounds nuw i8, ptr %calloc.i, i64 8
  store ptr %24, ptr %39, align 8
  store ptr %5, ptr %calloc.i, align 8
  %40 = call i32 @Radius_lex(ptr noundef nonnull %calloc.i)
  %41 = call i32 @Radius_lex_destroy(ptr noundef nonnull %calloc.i)
  br label %42

42:                                               ; preds = %38, %42
  %indvars.iv29 = phi i64 [ 0, %38 ], [ %indvars.iv.next30, %42 ]
  %43 = getelementptr [10 x ptr], ptr %16, i64 0, i64 %indvars.iv29
  %44 = load ptr, ptr %43, align 8
  call void @g_free(ptr noundef %44) #29
  %indvars.iv.next30 = add nuw nsw i64 %indvars.iv29, 1
  %exitcond32.not = icmp eq i64 %indvars.iv.next30, 10
  br i1 %exitcond32.not, label %45, label %42, !llvm.loop !16

45:                                               ; preds = %42
  %46 = load ptr, ptr %7, align 8
  %47 = load ptr, ptr %46, align 8
  call void @g_hash_table_foreach(ptr noundef %47, ptr noundef nonnull @setup_attrs, ptr noundef nonnull %5) #29
  %48 = load ptr, ptr %7, align 8
  %49 = getelementptr inbounds nuw i8, ptr %48, i64 16
  %50 = load ptr, ptr %49, align 8
  call void @g_hash_table_foreach(ptr noundef %50, ptr noundef nonnull @setup_vendors, ptr noundef nonnull %5) #29
  %51 = load ptr, ptr %8, align 8
  call void @g_hash_table_destroy(ptr noundef %51) #29
  %52 = load ptr, ptr %22, align 8
  %53 = getelementptr inbounds nuw i8, ptr %52, i64 8
  %54 = load i64, ptr %53, align 8
  %.not20 = icmp eq i64 %54, 0
  br i1 %.not20, label %57, label %55

55:                                               ; preds = %45
  %56 = call ptr @g_string_free(ptr noundef nonnull %52, i32 noundef 0) #29
  store ptr %56, ptr %3, align 8
  br label %59

57:                                               ; preds = %45
  store ptr null, ptr %3, align 8
  %58 = call ptr @g_string_free(ptr noundef nonnull %52, i32 noundef 1) #29
  br label %59

59:                                               ; preds = %57, %55, %33, %25
  %.017 = phi i32 [ 0, %33 ], [ 0, %55 ], [ 1, %57 ], [ 0, %25 ]
  ret i32 %.017
}